; ModuleID = 'source-C-CXX/46/1725.c'
source_filename = "source-C-CXX/46/1725.c"
target datalayout = "e-m:e-p270:32:32-p271:32:32-p272:64:64-i64:64-f80:128-n8:16:32:64-S128"
target triple = "x86_64-pc-linux-gnu"

@.str = private unnamed_addr constant [3 x i8] c"%d\00", align 1
@.str.1 = private unnamed_addr constant [4 x i8] c" %d\00", align 1

; Function Attrs: nofree nounwind sspstrong uwtable
define dso_local void @main() local_unnamed_addr #0 {
  %1 = alloca [1000 x i32], align 16
  %2 = alloca [1000 x i32], align 16
  %3 = alloca i32, align 4
  %4 = bitcast [1000 x i32]* %1 to i8*
  call void @llvm.lifetime.start.p0i8(i64 4000, i8* nonnull %4) #3
  %5 = bitcast [1000 x i32]* %2 to i8*
  call void @llvm.lifetime.start.p0i8(i64 4000, i8* nonnull %5) #3
  %6 = bitcast i32* %3 to i8*
  call void @llvm.lifetime.start.p0i8(i64 4, i8* nonnull %6) #3
  %7 = call i32 (i8*, ...) @__isoc99_scanf(i8* getelementptr inbounds ([3 x i8], [3 x i8]* @.str, i64 0, i64 0), i32* nonnull %3)
  %8 = load i32, i32* %3, align 4, !tbaa !5
  %9 = icmp sgt i32 %8, 0
  br i1 %9, label %83, label %102

10:                                               ; preds = %83
  %11 = sext i32 %88 to i64
  %12 = getelementptr inbounds [1000 x i32], [1000 x i32]* %1, i64 0, i64 %11
  %13 = icmp sgt i32 %88, 0
  br i1 %13, label %14, label %102

14:                                               ; preds = %10
  %15 = zext i32 %88 to i64
  %16 = icmp ult i32 %88, 8
  br i1 %16, label %81, label %17

17:                                               ; preds = %14
  %18 = and i64 %15, 4294967288
  %19 = add nsw i64 %18, -8
  %20 = lshr exact i64 %19, 3
  %21 = add nuw nsw i64 %20, 1
  %22 = and i64 %21, 1
  %23 = icmp eq i64 %19, 0
  br i1 %23, label %61, label %24

24:                                               ; preds = %17
  %25 = and i64 %21, 4611686018427387902
  br label %26

26:                                               ; preds = %26, %24
  %27 = phi i64 [ 0, %24 ], [ %58, %26 ]
  %28 = phi i64 [ %25, %24 ], [ %59, %26 ]
  %29 = xor i64 %27, -1
  %30 = getelementptr inbounds i32, i32* %12, i64 %29
  %31 = getelementptr inbounds i32, i32* %30, i64 -3
  %32 = bitcast i32* %31 to <4 x i32>*
  %33 = load <4 x i32>, <4 x i32>* %32, align 4, !tbaa !5
  %34 = shufflevector <4 x i32> %33, <4 x i32> poison, <4 x i32> <i32 3, i32 2, i32 1, i32 0>
  %35 = getelementptr inbounds i32, i32* %30, i64 -7
  %36 = bitcast i32* %35 to <4 x i32>*
  %37 = load <4 x i32>, <4 x i32>* %36, align 4, !tbaa !5
  %38 = shufflevector <4 x i32> %37, <4 x i32> poison, <4 x i32> <i32 3, i32 2, i32 1, i32 0>
  %39 = getelementptr inbounds [1000 x i32], [1000 x i32]* %2, i64 0, i64 %27
  %40 = bitcast i32* %39 to <4 x i32>*
  store <4 x i32> %34, <4 x i32>* %40, align 16, !tbaa !5
  %41 = getelementptr inbounds i32, i32* %39, i64 4
  %42 = bitcast i32* %41 to <4 x i32>*
  store <4 x i32> %38, <4 x i32>* %42, align 16, !tbaa !5
  %43 = or i64 %27, 8
  %44 = sub nuw nsw i64 -9, %27
  %45 = getelementptr inbounds i32, i32* %12, i64 %44
  %46 = getelementptr inbounds i32, i32* %45, i64 -3
  %47 = bitcast i32* %46 to <4 x i32>*
  %48 = load <4 x i32>, <4 x i32>* %47, align 4, !tbaa !5
  %49 = shufflevector <4 x i32> %48, <4 x i32> poison, <4 x i32> <i32 3, i32 2, i32 1, i32 0>
  %50 = getelementptr inbounds i32, i32* %45, i64 -7
  %51 = bitcast i32* %50 to <4 x i32>*
  %52 = load <4 x i32>, <4 x i32>* %51, align 4, !tbaa !5
  %53 = shufflevector <4 x i32> %52, <4 x i32> poison, <4 x i32> <i32 3, i32 2, i32 1, i32 0>
  %54 = getelementptr inbounds [1000 x i32], [1000 x i32]* %2, i64 0, i64 %43
  %55 = bitcast i32* %54 to <4 x i32>*
  store <4 x i32> %49, <4 x i32>* %55, align 16, !tbaa !5
  %56 = getelementptr inbounds i32, i32* %54, i64 4
  %57 = bitcast i32* %56 to <4 x i32>*
  store <4 x i32> %53, <4 x i32>* %57, align 16, !tbaa !5
  %58 = add nuw i64 %27, 16
  %59 = add i64 %28, -2
  %60 = icmp eq i64 %59, 0
  br i1 %60, label %61, label %26, !llvm.loop !9

61:                                               ; preds = %26, %17
  %62 = phi i64 [ 0, %17 ], [ %58, %26 ]
  %63 = icmp eq i64 %22, 0
  br i1 %63, label %79, label %64

64:                                               ; preds = %61
  %65 = xor i64 %62, -1
  %66 = getelementptr inbounds i32, i32* %12, i64 %65
  %67 = getelementptr inbounds i32, i32* %66, i64 -3
  %68 = bitcast i32* %67 to <4 x i32>*
  %69 = load <4 x i32>, <4 x i32>* %68, align 4, !tbaa !5
  %70 = shufflevector <4 x i32> %69, <4 x i32> poison, <4 x i32> <i32 3, i32 2, i32 1, i32 0>
  %71 = getelementptr inbounds i32, i32* %66, i64 -7
  %72 = bitcast i32* %71 to <4 x i32>*
  %73 = load <4 x i32>, <4 x i32>* %72, align 4, !tbaa !5
  %74 = shufflevector <4 x i32> %73, <4 x i32> poison, <4 x i32> <i32 3, i32 2, i32 1, i32 0>
  %75 = getelementptr inbounds [1000 x i32], [1000 x i32]* %2, i64 0, i64 %62
  %76 = bitcast i32* %75 to <4 x i32>*
  store <4 x i32> %70, <4 x i32>* %76, align 16, !tbaa !5
  %77 = getelementptr inbounds i32, i32* %75, i64 4
  %78 = bitcast i32* %77 to <4 x i32>*
  store <4 x i32> %74, <4 x i32>* %78, align 16, !tbaa !5
  br label %79

79:                                               ; preds = %61, %64
  %80 = icmp eq i64 %18, %15
  br i1 %80, label %99, label %81

81:                                               ; preds = %14, %79
  %82 = phi i64 [ 0, %14 ], [ %18, %79 ]
  br label %91

83:                                               ; preds = %0, %83
  %84 = phi i64 [ %87, %83 ], [ 0, %0 ]
  %85 = getelementptr inbounds [1000 x i32], [1000 x i32]* %1, i64 0, i64 %84
  %86 = call i32 (i8*, ...) @__isoc99_scanf(i8* getelementptr inbounds ([3 x i8], [3 x i8]* @.str, i64 0, i64 0), i32* nonnull %85)
  %87 = add nuw nsw i64 %84, 1
  %88 = load i32, i32* %3, align 4, !tbaa !5
  %89 = sext i32 %88 to i64
  %90 = icmp slt i64 %87, %89
  br i1 %90, label %83, label %10, !llvm.loop !12

91:                                               ; preds = %81, %91
  %92 = phi i64 [ %97, %91 ], [ %82, %81 ]
  %93 = xor i64 %92, -1
  %94 = getelementptr inbounds i32, i32* %12, i64 %93
  %95 = load i32, i32* %94, align 4, !tbaa !5
  %96 = getelementptr inbounds [1000 x i32], [1000 x i32]* %2, i64 0, i64 %92
  store i32 %95, i32* %96, align 4, !tbaa !5
  %97 = add nuw nsw i64 %92, 1
  %98 = icmp eq i64 %97, %15
  br i1 %98, label %99, label %91, !llvm.loop !13

99:                                               ; preds = %91, %79
  %100 = getelementptr inbounds [1000 x i32], [1000 x i32]* %2, i64 0, i64 0
  %101 = load i32, i32* %100, align 16, !tbaa !5
  br label %102

102:                                              ; preds = %0, %99, %10
  %103 = phi i32 [ %101, %99 ], [ undef, %10 ], [ undef, %0 ]
  %104 = call i32 (i8*, ...) @printf(i8* nonnull dereferenceable(1) getelementptr inbounds ([3 x i8], [3 x i8]* @.str, i64 0, i64 0), i32 %103)
  %105 = load i32, i32* %3, align 4, !tbaa !5
  %106 = icmp sgt i32 %105, 1
  br i1 %106, label %107, label %116

107:                                              ; preds = %102, %107
  %108 = phi i64 [ %112, %107 ], [ 1, %102 ]
  %109 = getelementptr inbounds [1000 x i32], [1000 x i32]* %2, i64 0, i64 %108
  %110 = load i32, i32* %109, align 4, !tbaa !5
  %111 = call i32 (i8*, ...) @printf(i8* nonnull dereferenceable(1) getelementptr inbounds ([4 x i8], [4 x i8]* @.str.1, i64 0, i64 0), i32 %110)
  %112 = add nuw nsw i64 %108, 1
  %113 = load i32, i32* %3, align 4, !tbaa !5
  %114 = sext i32 %113 to i64
  %115 = icmp slt i64 %112, %114
  br i1 %115, label %107, label %116, !llvm.loop !15

116:                                              ; preds = %107, %102
  call void @llvm.lifetime.end.p0i8(i64 4, i8* nonnull %6) #3
  call void @llvm.lifetime.end.p0i8(i64 4000, i8* nonnull %5) #3
  call void @llvm.lifetime.end.p0i8(i64 4000, i8* nonnull %4) #3
  ret void
}

; Function Attrs: argmemonly mustprogress nofree nosync nounwind willreturn
declare void @llvm.lifetime.start.p0i8(i64 immarg, i8* nocapture) #1

; Function Attrs: nofree nounwind
declare noundef i32 @__isoc99_scanf(i8* nocapture noundef readonly, ...) local_unnamed_addr #2

; Function Attrs: nofree nounwind
declare noundef i32 @printf(i8* nocapture noundef readonly, ...) local_unnamed_addr #2

; Function Attrs: argmemonly mustprogress nofree nosync nounwind willreturn
declare void @llvm.lifetime.end.p0i8(i64 immarg, i8* nocapture) #1


!llvm.module.flags = !{!0, !1, !2, !3}
!llvm.ident = !{!4}

!0 = !{i32 1, !"wchar_size", i32 4}
!1 = !{i32 7, !"PIC Level", i32 2}
!2 = !{i32 7, !"PIE Level", i32 2}
!3 = !{i32 7, !"uwtable", i32 1}
!4 = !{!"clang version 13.0.0"}
!5 = !{!6, !6, i64 0}
!6 = !{!"int", !7, i64 0}
!7 = !{!"omnipotent char", !8, i64 0}
!8 = !{!"Simple C/C++ TBAA"}
!9 = distinct !{!9, !10, !11}
!10 = !{!"llvm.loop.mustprogress"}
!11 = !{!"llvm.loop.isvectorized", i32 1}
!12 = distinct !{!12, !10}
!13 = distinct !{!13, !10, !14, !11}
!14 = !{!"llvm.loop.unroll.runtime.disable"}
!15 = distinct !{!15, !10}
